target datalayout = "e-m:e-p270:32:32-p271:32:32-p272:64:64-i64:64-i128:128-f80:128-n8:16:32:64-S128"
target triple = "x86_64-unknown-linux-gnu"

%struct.anon = type { ptr }
%struct.QEnumLookup = type { ptr, ptr, i32 }
%struct.TPMBackend = type { %struct.Object, ptr, i8, i8, ptr, ptr, %struct.anon.0 }
%struct.Object = type { ptr, ptr, ptr, i32, ptr }
%struct.anon.0 = type { ptr, ptr }
%struct.TPMBackendClass = type { %struct.ObjectClass, i32, ptr, ptr, ptr, ptr, ptr, ptr, ptr, ptr, ptr, ptr, ptr, ptr }
%struct.ObjectClass = type { ptr, ptr, [4 x ptr], [4 x ptr], ptr, ptr }

@tpm_backends = internal global %struct.anon zeroinitializer, align 8
@.str.3 = private unnamed_addr constant [25 x i8] c"Only one TPM is allowed.\00", align 1
@.str.4 = private unnamed_addr constant [26 x i8] c"Parameter '%s' is missing\00", align 1
@.str.5 = private unnamed_addr constant [3 x i8] c"id\00", align 1
@.str.6 = private unnamed_addr constant [5 x i8] c"type\00", align 1
@TpmType_lookup = external constant %struct.QEnumLookup, align 8
@.str.7 = private unnamed_addr constant [26 x i8] c"Parameter '%s' expects %s\00", align 1
@.str.8 = private unnamed_addr constant [19 x i8] c"a TPM backend type\00", align 1
@.str.12 = private unnamed_addr constant [7 x i8] c"tpm-%s\00", align 1
@.str.13 = private unnamed_addr constant [12 x i8] c"tpm-backend\00", align 1
@.str.14 = private unnamed_addr constant [107 x i8] c"/home/dtcxzyw/WorkSpace/Projects/compilers/llvm-opt-benchmark/bench/qemu/qemu/include/sysemu/tpm_backend.h\00", align 1
@__func__.TPM_BACKEND_CLASS = private unnamed_addr constant [18 x i8] c"TPM_BACKEND_CLASS\00", align 1

; Function Attrs: nounwind sspstrong uwtable
define internal ptr @TPM_BACKEND_CLASS(ptr noundef %klass) #0 {
entry:
  %klass.addr = alloca ptr, align 8
  store ptr %klass, ptr %klass.addr, align 8
  %0 = load ptr, ptr %klass.addr, align 8
  %call = call ptr @object_class_dynamic_cast_assert(ptr noundef %0, ptr noundef @.str.13, ptr noundef @.str.14, i32 noundef 25, ptr noundef @__func__.TPM_BACKEND_CLASS)
  ret ptr %call
}

; Function Attrs: nounwind sspstrong uwtable
define internal ptr @tpm_be_find_by_type(i32 noundef %type) #0 {
entry:
  %retval = alloca ptr, align 8
  %type.addr = alloca i32, align 4
  %oc = alloca ptr, align 8
  %typename = alloca ptr, align 8
  store i32 %type, ptr %type.addr, align 4
  %0 = load i32, ptr %type.addr, align 4
  %call = call ptr @qapi_enum_lookup(ptr noundef @TpmType_lookup, i32 noundef %0)
  %call1 = call noalias ptr (ptr, ...) @g_strdup_printf(ptr noundef @.str.12, ptr noundef %call)
  store ptr %call1, ptr %typename, align 8
  %1 = load ptr, ptr %typename, align 8
  %call2 = call ptr @object_class_by_name(ptr noundef %1)
  store ptr %call2, ptr %oc, align 8
  %2 = load ptr, ptr %typename, align 8
  call void @g_free(ptr noundef %2)
  %3 = load ptr, ptr %oc, align 8
  %call3 = call ptr @object_class_dynamic_cast(ptr noundef %3, ptr noundef @.str.13)
  %tobool = icmp ne ptr %call3, null
  br i1 %tobool, label %if.end, label %if.then

if.then:                                          ; preds = %entry
  store ptr null, ptr %retval, align 8
  br label %return

if.end:                                           ; preds = %entry
  %4 = load ptr, ptr %oc, align 8
  %call4 = call ptr @TPM_BACKEND_CLASS(ptr noundef %4)
  store ptr %call4, ptr %retval, align 8
  br label %return

return:                                           ; preds = %if.end, %if.then
  %5 = load ptr, ptr %retval, align 8
  ret ptr %5
}

; Function Attrs: nounwind sspstrong uwtable
define internal i32 @tpm_init_tpmdev(ptr noundef %dummy, ptr noundef %opts, ptr noundef %errp) #0 {
entry:
  %retval = alloca i32, align 4
  %dummy.addr = alloca ptr, align 8
  %opts.addr = alloca ptr, align 8
  %errp.addr = alloca ptr, align 8
  %value = alloca ptr, align 8
  %id = alloca ptr, align 8
  %be = alloca ptr, align 8
  %drv = alloca ptr, align 8
  %local_err = alloca ptr, align 8
  %i = alloca i32, align 4
  store ptr %dummy, ptr %dummy.addr, align 8
  store ptr %opts, ptr %opts.addr, align 8
  store ptr %errp, ptr %errp.addr, align 8
  store ptr null, ptr %local_err, align 8
  %0 = load ptr, ptr @tpm_backends, align 8
  %cmp = icmp eq ptr %0, null
  br i1 %cmp, label %if.end, label %if.then

if.then:                                          ; preds = %entry
  call void (ptr, ...) @error_report(ptr noundef @.str.3)
  store i32 1, ptr %retval, align 4
  br label %return

if.end:                                           ; preds = %entry
  %1 = load ptr, ptr %opts.addr, align 8
  %call = call ptr @qemu_opts_id(ptr noundef %1)
  store ptr %call, ptr %id, align 8
  %2 = load ptr, ptr %id, align 8
  %cmp1 = icmp eq ptr %2, null
  br i1 %cmp1, label %if.then2, label %if.end3

if.then2:                                         ; preds = %if.end
  call void (ptr, ...) @error_report(ptr noundef @.str.4, ptr noundef @.str.5)
  store i32 1, ptr %retval, align 4
  br label %return

if.end3:                                          ; preds = %if.end
  %3 = load ptr, ptr %opts.addr, align 8
  %call4 = call ptr @qemu_opt_get(ptr noundef %3, ptr noundef @.str.6)
  store ptr %call4, ptr %value, align 8
  %4 = load ptr, ptr %value, align 8
  %tobool = icmp ne ptr %4, null
  br i1 %tobool, label %if.end6, label %if.then5

if.then5:                                         ; preds = %if.end3
  call void (ptr, ...) @error_report(ptr noundef @.str.4, ptr noundef @.str.6)
  call void @tpm_display_backend_drivers()
  store i32 1, ptr %retval, align 4
  br label %return

if.end6:                                          ; preds = %if.end3
  %5 = load ptr, ptr %value, align 8
  %call7 = call i32 @qapi_enum_parse(ptr noundef @TpmType_lookup, ptr noundef %5, i32 noundef -1, ptr noundef null)
  store i32 %call7, ptr %i, align 4
  %6 = load i32, ptr %i, align 4
  %cmp8 = icmp sge i32 %6, 0
  br i1 %cmp8, label %cond.true, label %cond.false

cond.true:                                        ; preds = %if.end6
  %7 = load i32, ptr %i, align 4
  %call9 = call ptr @tpm_be_find_by_type(i32 noundef %7)
  br label %cond.end

cond.false:                                       ; preds = %if.end6
  br label %cond.end

cond.end:                                         ; preds = %cond.false, %cond.true
  %cond = phi ptr [ %call9, %cond.true ], [ null, %cond.false ]
  store ptr %cond, ptr %be, align 8
  %8 = load ptr, ptr %be, align 8
  %cmp10 = icmp eq ptr %8, null
  br i1 %cmp10, label %if.then11, label %if.end12

if.then11:                                        ; preds = %cond.end
  call void (ptr, ...) @error_report(ptr noundef @.str.7, ptr noundef @.str.6, ptr noundef @.str.8)
  call void @tpm_display_backend_drivers()
  store i32 1, ptr %retval, align 4
  br label %return

if.end12:                                         ; preds = %cond.end
  %9 = load ptr, ptr %opts.addr, align 8
  %10 = load ptr, ptr %be, align 8
  %opts13 = getelementptr inbounds %struct.TPMBackendClass, ptr %10, i32 0, i32 2
  %11 = load ptr, ptr %opts13, align 8
  %call14 = call zeroext i1 @qemu_opts_validate(ptr noundef %9, ptr noundef %11, ptr noundef %local_err)
  br i1 %call14, label %if.end16, label %if.then15

if.then15:                                        ; preds = %if.end12
  %12 = load ptr, ptr %local_err, align 8
  call void @error_report_err(ptr noundef %12)
  store i32 1, ptr %retval, align 4
  br label %return

if.end16:                                         ; preds = %if.end12
  %13 = load ptr, ptr %be, align 8
  %create = getelementptr inbounds %struct.TPMBackendClass, ptr %13, i32 0, i32 4
  %14 = load ptr, ptr %create, align 8
  %15 = load ptr, ptr %opts.addr, align 8
  %call17 = call ptr %14(ptr noundef %15)
  store ptr %call17, ptr %drv, align 8
  %16 = load ptr, ptr %drv, align 8
  %tobool18 = icmp ne ptr %16, null
  br i1 %tobool18, label %if.end20, label %if.then19

if.then19:                                        ; preds = %if.end16
  store i32 1, ptr %retval, align 4
  br label %return

if.end20:                                         ; preds = %if.end16
  %17 = load ptr, ptr %id, align 8
  %call21 = call noalias ptr @g_strdup(ptr noundef %17)
  %18 = load ptr, ptr %drv, align 8
  %id22 = getelementptr inbounds %struct.TPMBackend, ptr %18, i32 0, i32 5
  store ptr %call21, ptr %id22, align 8
  br label %do.body

do.body:                                          ; preds = %if.end20
  %19 = load ptr, ptr @tpm_backends, align 8
  %20 = load ptr, ptr %drv, align 8
  %list = getelementptr inbounds %struct.TPMBackend, ptr %20, i32 0, i32 6
  %le_next = getelementptr inbounds %struct.anon.0, ptr %list, i32 0, i32 0
  store ptr %19, ptr %le_next, align 8
  %cmp23 = icmp ne ptr %19, null
  br i1 %cmp23, label %if.then24, label %if.end28

if.then24:                                        ; preds = %do.body
  %21 = load ptr, ptr %drv, align 8
  %list25 = getelementptr inbounds %struct.TPMBackend, ptr %21, i32 0, i32 6
  %le_next26 = getelementptr inbounds %struct.anon.0, ptr %list25, i32 0, i32 0
  %22 = load ptr, ptr @tpm_backends, align 8
  %list27 = getelementptr inbounds %struct.TPMBackend, ptr %22, i32 0, i32 6
  %le_prev = getelementptr inbounds %struct.anon.0, ptr %list27, i32 0, i32 1
  store ptr %le_next26, ptr %le_prev, align 8
  br label %if.end28

if.end28:                                         ; preds = %if.then24, %do.body
  %23 = load ptr, ptr %drv, align 8
  store ptr %23, ptr @tpm_backends, align 8
  %24 = load ptr, ptr %drv, align 8
  %list29 = getelementptr inbounds %struct.TPMBackend, ptr %24, i32 0, i32 6
  %le_prev30 = getelementptr inbounds %struct.anon.0, ptr %list29, i32 0, i32 1
  store ptr @tpm_backends, ptr %le_prev30, align 8
  br label %do.end

do.end:                                           ; preds = %if.end28
  store i32 0, ptr %retval, align 4
  br label %return

return:                                           ; preds = %do.end, %if.then19, %if.then15, %if.then11, %if.then5, %if.then2, %if.then
  %25 = load i32, ptr %retval, align 4
  ret i32 %25
}