; Function Attrs: nounwind sspstrong uwtable
define internal range(i32 0, 2) i32 @tpm_init_tpmdev(ptr readnone captures(none) %dummy, ptr noundef %opts, ptr readnone captures(none) %errp) #2 {
entry:
  %local_err = alloca ptr, align 8
  store ptr null, ptr %local_err, align 8
  %0 = load ptr, ptr @tpm_backends, align 8
  %cmp = icmp eq ptr %0, null
  br i1 %cmp, label %if.end, label %if.then

if.then:                                          ; preds = %entry
  tail call void (ptr, ...) @error_report(ptr noundef nonnull @.str.3) #7
  br label %return

if.end:                                           ; preds = %entry
  %call = tail call ptr @qemu_opts_id(ptr noundef %opts) #7
  %cmp1 = icmp eq ptr %call, null
  br i1 %cmp1, label %if.then2, label %if.end3

if.then2:                                         ; preds = %if.end
  tail call void (ptr, ...) @error_report(ptr noundef nonnull @.str.4, ptr noundef nonnull @.str.5) #7
  br label %return

if.end3:                                          ; preds = %if.end
  %call4 = tail call ptr @qemu_opt_get(ptr noundef %opts, ptr noundef nonnull @.str.6) #7
  %tobool.not = icmp eq ptr %call4, null
  br i1 %tobool.not, label %if.then5, label %if.end6

if.then5:                                         ; preds = %if.end3
  tail call void (ptr, ...) @error_report(ptr noundef nonnull @.str.4, ptr noundef nonnull @.str.6) #7
  tail call fastcc void @tpm_display_backend_drivers()
  br label %return

if.end6:                                          ; preds = %if.end3
  %call7 = tail call i32 @qapi_enum_parse(ptr noundef nonnull @TpmType_lookup, ptr noundef nonnull %call4, i32 noundef -1, ptr noundef null) #7
  %cmp8 = icmp sgt i32 %call7, -1
  br i1 %cmp8, label %cond.true, label %if.then11

cond.true:                                        ; preds = %if.end6
  %call.i = tail call ptr @qapi_enum_lookup(ptr noundef nonnull @TpmType_lookup, i32 noundef range(i32 0, -2147483648) %call7) #7
  %call1.i = tail call noalias ptr (ptr, ...) @g_strdup_printf(ptr noundef nonnull @.str.12, ptr noundef %call.i) #7
  %call2.i = tail call ptr @object_class_by_name(ptr noundef %call1.i) #7
  tail call void @g_free(ptr noundef %call1.i) #7
  %call3.i = tail call ptr @object_class_dynamic_cast(ptr noundef %call2.i, ptr noundef nonnull @.str.13) #7
  %tobool.not.i = icmp eq ptr %call3.i, null
  br i1 %tobool.not.i, label %if.then11, label %cond.end

cond.end:                                         ; preds = %cond.true
  %call.i.i = tail call ptr @object_class_dynamic_cast_assert(ptr noundef %call2.i, ptr noundef nonnull @.str.13, ptr noundef nonnull @.str.14, i32 noundef 25, ptr noundef nonnull @__func__.TPM_BACKEND_CLASS) #7
  %cmp10 = icmp eq ptr %call.i.i, null
  br i1 %cmp10, label %if.then11, label %if.end12

if.then11:                                        ; preds = %cond.true, %if.end6, %cond.end
  tail call void (ptr, ...) @error_report(ptr noundef nonnull @.str.7, ptr noundef nonnull @.str.6, ptr noundef nonnull @.str.8) #7
  tail call fastcc void @tpm_display_backend_drivers()
  br label %return

if.end12:                                         ; preds = %cond.end
  %opts13 = getelementptr inbounds nuw i8, ptr %call.i.i, i64 104
  %1 = load ptr, ptr %opts13, align 8
  %call14 = call zeroext i1 @qemu_opts_validate(ptr noundef %opts, ptr noundef %1, ptr noundef nonnull %local_err) #7
  br i1 %call14, label %if.end16, label %if.then15

if.then15:                                        ; preds = %if.end12
  %2 = load ptr, ptr %local_err, align 8
  call void @error_report_err(ptr noundef %2) #7
  br label %return

if.end16:                                         ; preds = %if.end12
  %create = getelementptr inbounds nuw i8, ptr %call.i.i, i64 120
  %3 = load ptr, ptr %create, align 8
  %call17 = call ptr %3(ptr noundef %opts) #7
  %tobool18.not = icmp eq ptr %call17, null
  br i1 %tobool18.not, label %return, label %if.end20

if.end20:                                         ; preds = %if.end16
  %call21 = call noalias ptr @g_strdup(ptr noundef nonnull %call) #7
  %id22 = getelementptr inbounds nuw i8, ptr %call17, i64 64
  store ptr %call21, ptr %id22, align 8
  %4 = load ptr, ptr @tpm_backends, align 8
  %list = getelementptr inbounds nuw i8, ptr %call17, i64 72
  store ptr %4, ptr %list, align 8
  %cmp23.not = icmp eq ptr %4, null
  br i1 %cmp23.not, label %if.end28, label %if.then24

if.then24:                                        ; preds = %if.end20
  %le_prev = getelementptr inbounds nuw i8, ptr %4, i64 80
  store ptr %list, ptr %le_prev, align 8
  br label %if.end28

if.end28:                                         ; preds = %if.then24, %if.end20
  store ptr %call17, ptr @tpm_backends, align 8
  %le_prev30 = getelementptr inbounds nuw i8, ptr %call17, i64 80
  store ptr @tpm_backends, ptr %le_prev30, align 8
  br label %return

return:                                           ; preds = %if.end16, %if.end28, %if.then15, %if.then11, %if.then5, %if.then2, %if.then
  %retval.0 = phi i32 [ 1, %if.then2 ], [ 1, %if.then11 ], [ 0, %if.end28 ], [ 1, %if.then15 ], [ 1, %if.then5 ], [ 1, %if.then ], [ 1, %if.end16 ]
  ret i32 %retval.0
}